; Function Attrs: mustprogress nofree nounwind willreturn memory(argmem: read) uwtable
define dso_local i32 @xstrncmpz(ptr noundef readonly captures(none) %0, ptr noundef readonly captures(none) %1, i64 noundef %2) local_unnamed_addr #6 {
  %4 = tail call i32 @strncmp(ptr noundef %0, ptr noundef %1, i64 noundef %2) #23
  %.not = icmp eq i32 %4, 0
  br i1 %.not, label %5, label %10

5:                                                ; preds = %3
  %6 = getelementptr inbounds nuw i8, ptr %0, i64 %2
  %7 = load i8, ptr %6, align 1, !tbaa !8
  %8 = icmp ne i8 %7, 0
  %9 = zext i1 %8 to i32
  br label %10

10:                                               ; preds = %3, %5
  %.0 = phi i32 [ %9, %5 ], [ %4, %3 ]
  ret i32 %.0
}